target datalayout = "e-m:e-p270:32:32-p271:32:32-p272:64:64-i64:64-i128:128-f80:128-n8:16:32:64-S128"
target triple = "x86_64-pc-linux-gnu"

%struct.jpeg_decompress_struct = type { ptr, ptr, ptr, ptr, i32, i32, ptr, i32, i32, i32, i32, i32, i32, i32, double, i32, i32, i32, i32, i32, i32, i32, i32, i32, i32, i32, i32, i32, i32, i32, i32, i32, i32, ptr, i32, i32, i32, i32, i32, ptr, [4 x ptr], [4 x ptr], [4 x ptr], i32, ptr, i32, i32, i32, [16 x i8], [16 x i8], [16 x i8], i32, i32, i8, i8, i8, i16, i16, i32, i8, i32, ptr, i32, i32, i32, i32, i32, ptr, i32, [4 x ptr], i32, i32, i32, [10 x i32], i32, i32, i32, i32, i32, ptr, i32, i32, ptr, ptr, ptr, ptr, ptr, ptr, ptr, ptr, ptr, ptr, ptr }
%struct.JPEGReadContext = type { %struct.jpeg_source_mgr, ptr, i64 }
%struct.jpeg_source_mgr = type { ptr, i64, ptr, ptr, ptr, ptr, ptr }

; Function Attrs: nounwind uwtable
define internal void @ContextSkip(ptr noundef %0, i64 noundef %1) #0 {
  %3 = alloca ptr, align 8
  %4 = alloca i64, align 8
  %5 = alloca ptr, align 8
  %6 = alloca i64, align 8
  store ptr %0, ptr %3, align 8, !tbaa !68
  store i64 %1, ptr %4, align 8, !tbaa !9
  call void @llvm.lifetime.start.p0(i64 8, ptr %5) #10
  %7 = load ptr, ptr %3, align 8, !tbaa !68
  %8 = getelementptr inbounds nuw %struct.jpeg_decompress_struct, ptr %7, i32 0, i32 6
  %9 = load ptr, ptr %8, align 8, !tbaa !71
  store ptr %9, ptr %5, align 8, !tbaa !70
  call void @llvm.lifetime.start.p0(i64 8, ptr %6) #10
  %10 = load i64, ptr %4, align 8, !tbaa !9
  store i64 %10, ptr %6, align 8, !tbaa !9
  %11 = load i64, ptr %6, align 8, !tbaa !9
  %12 = load ptr, ptr %5, align 8, !tbaa !70
  %13 = getelementptr inbounds nuw %struct.JPEGReadContext, ptr %12, i32 0, i32 0
  %14 = getelementptr inbounds nuw %struct.jpeg_source_mgr, ptr %13, i32 0, i32 1
  %15 = load i64, ptr %14, align 8, !tbaa !77
  %16 = icmp ugt i64 %11, %15
  br i1 %16, label %17, label %22

17:                                               ; preds = %2
  %18 = load ptr, ptr %5, align 8, !tbaa !70
  %19 = getelementptr inbounds nuw %struct.JPEGReadContext, ptr %18, i32 0, i32 0
  %20 = getelementptr inbounds nuw %struct.jpeg_source_mgr, ptr %19, i32 0, i32 1
  %21 = load i64, ptr %20, align 8, !tbaa !77
  store i64 %21, ptr %6, align 8, !tbaa !9
  br label %22

22:                                               ; preds = %17, %2
  %23 = load i64, ptr %6, align 8, !tbaa !9
  %24 = load ptr, ptr %5, align 8, !tbaa !70
  %25 = getelementptr inbounds nuw %struct.JPEGReadContext, ptr %24, i32 0, i32 0
  %26 = getelementptr inbounds nuw %struct.jpeg_source_mgr, ptr %25, i32 0, i32 1
  %27 = load i64, ptr %26, align 8, !tbaa !77
  %28 = sub i64 %27, %23
  store i64 %28, ptr %26, align 8, !tbaa !77
  %29 = load i64, ptr %6, align 8, !tbaa !9
  %30 = load ptr, ptr %5, align 8, !tbaa !70
  %31 = getelementptr inbounds nuw %struct.JPEGReadContext, ptr %30, i32 0, i32 0
  %32 = getelementptr inbounds nuw %struct.jpeg_source_mgr, ptr %31, i32 0, i32 0
  %33 = load ptr, ptr %32, align 8, !tbaa !78
  %34 = getelementptr inbounds nuw i8, ptr %33, i64 %29
  store ptr %34, ptr %32, align 8, !tbaa !78
  call void @llvm.lifetime.end.p0(i64 8, ptr %6) #10
  call void @llvm.lifetime.end.p0(i64 8, ptr %5) #10
  ret void
}