; Function Attrs: mustprogress nofree norecurse nosync nounwind willreturn memory(readwrite, inaccessiblemem: none) uwtable
define internal void @ContextSkip(ptr noundef readonly captures(none) %0, i64 noundef %1) #10 {
  %3 = getelementptr inbounds nuw i8, ptr %0, i64 40
  %4 = load ptr, ptr %3, align 8, !tbaa !41
  %5 = getelementptr inbounds nuw i8, ptr %4, i64 8
  %6 = load i64, ptr %5, align 8, !tbaa !88
  %spec.select = tail call i64 @llvm.umin.i64(i64 %1, i64 %6)
  %7 = sub i64 %6, %spec.select
  store i64 %7, ptr %5, align 8, !tbaa !88
  %8 = load ptr, ptr %4, align 8, !tbaa !87
  %9 = getelementptr inbounds nuw i8, ptr %8, i64 %spec.select
  store ptr %9, ptr %4, align 8, !tbaa !87
  ret void
}